target datalayout = "e-m:e-p270:32:32-p271:32:32-p272:64:64-i64:64-i128:128-f80:128-n8:16:32:64-S128"
target triple = "x86_64-pc-linux-gnu"

%class.ExpressionAssign = type { %class.Expression, ptr }
%class.Expression = type { ptr, i32, i32, ptr }
%class.StatementAssign = type { %class.Statement, i32, ptr, ptr, ptr, ptr, %"class.std::__cxx11::basic_string", %"class.std::__cxx11::basic_string" }
%class.Statement = type { ptr, i32, i32, ptr, ptr }
%"class.std::__cxx11::basic_string" = type { %"struct.std::__cxx11::basic_string<char>::_Alloc_hider", i64, %union.anon }
%"struct.std::__cxx11::basic_string<char>::_Alloc_hider" = type { ptr }
%union.anon = type { i64, [8 x i8] }

; Function Attrs: mustprogress nounwind uwtable
define linkonce_odr dso_local noundef ptr @_ZNK15StatementAssign8get_exprEv(ptr noundef nonnull align 8 dereferenceable(136) %0) #7 comdat align 2 {
  %2 = alloca ptr, align 8
  store ptr %0, ptr %2, align 8
  %3 = load ptr, ptr %2, align 8
  %4 = getelementptr inbounds %class.StatementAssign, ptr %3, i32 0, i32 3
  %5 = load ptr, ptr %4, align 8
  ret ptr %5
}

; Function Attrs: mustprogress nounwind uwtable
define linkonce_odr dso_local noundef zeroext i1 @_ZNK15StatementAssign16is_simple_assignEv(ptr noundef nonnull align 8 dereferenceable(136) %0) #7 comdat align 2 {
  %2 = alloca ptr, align 8
  store ptr %0, ptr %2, align 8
  %3 = load ptr, ptr %2, align 8
  %4 = getelementptr inbounds %class.StatementAssign, ptr %3, i32 0, i32 1
  %5 = load i32, ptr %4, align 8
  %6 = icmp eq i32 %5, 0
  ret i1 %6
}

; Function Attrs: mustprogress uwtable
define dso_local noundef zeroext i1 @_ZNK16ExpressionAssign9is_0_or_1Ev(ptr noundef nonnull align 8 dereferenceable(32) %0) unnamed_addr #4 align 2 {
  %2 = alloca ptr, align 8
  store ptr %0, ptr %2, align 8
  %3 = load ptr, ptr %2, align 8
  %4 = getelementptr inbounds %class.ExpressionAssign, ptr %3, i32 0, i32 1
  %5 = load ptr, ptr %4, align 8
  %6 = call noundef zeroext i1 @_ZNK15StatementAssign16is_simple_assignEv(ptr noundef nonnull align 8 dereferenceable(136) %5)
  br i1 %6, label %7, label %15

7:                                                ; preds = %1
  %8 = getelementptr inbounds %class.ExpressionAssign, ptr %3, i32 0, i32 1
  %9 = load ptr, ptr %8, align 8
  %10 = call noundef ptr @_ZNK15StatementAssign8get_exprEv(ptr noundef nonnull align 8 dereferenceable(136) %9)
  %11 = load ptr, ptr %10, align 8
  %12 = getelementptr inbounds ptr, ptr %11, i64 16
  %13 = load ptr, ptr %12, align 8
  %14 = call noundef zeroext i1 %13(ptr noundef nonnull align 8 dereferenceable(24) %10)
  br label %15

15:                                               ; preds = %7, %1
  %16 = phi i1 [ false, %1 ], [ %14, %7 ]
  ret i1 %16
}